target datalayout = "e-m:e-p270:32:32-p271:32:32-p272:64:64-i64:64-i128:128-f80:128-n8:16:32:64-S128"
target triple = "x86_64-pc-linux-gnu"

; Function Attrs: nounwind uwtable
define internal i32 @dsa_import(ptr noundef %0, i32 noundef %1, ptr noundef %2) #0 {
  %4 = alloca i32, align 4
  %5 = alloca ptr, align 8
  %6 = alloca i32, align 4
  %7 = alloca ptr, align 8
  %8 = alloca ptr, align 8
  %9 = alloca i32, align 4
  %10 = alloca i32, align 4
  %11 = alloca i32, align 4
  store ptr %0, ptr %5, align 8, !tbaa !3
  store i32 %1, ptr %6, align 4, !tbaa !7
  store ptr %2, ptr %7, align 8, !tbaa !9
  call void @llvm.lifetime.start.p0(i64 8, ptr %8) #7
  %12 = load ptr, ptr %5, align 8, !tbaa !3
  store ptr %12, ptr %8, align 8, !tbaa !27
  call void @llvm.lifetime.start.p0(i64 4, ptr %9) #7
  store i32 1, ptr %9, align 4, !tbaa !7
  %13 = call i32 @ossl_prov_is_running()
  %14 = icmp ne i32 %13, 0
  br i1 %14, label %15, label %18

15:                                               ; preds = %3
  %16 = load ptr, ptr %8, align 8, !tbaa !27
  %17 = icmp eq ptr %16, null
  br i1 %17, label %18, label %19

18:                                               ; preds = %15, %3
  store i32 0, ptr %4, align 4
  store i32 1, ptr %10, align 4
  br label %56

19:                                               ; preds = %15
  %20 = load i32, ptr %6, align 4, !tbaa !7
  %21 = and i32 %20, 7
  %22 = icmp eq i32 %21, 0
  br i1 %22, label %23, label %24

23:                                               ; preds = %19
  store i32 0, ptr %4, align 4
  store i32 1, ptr %10, align 4
  br label %56

24:                                               ; preds = %19
  %25 = load i32, ptr %9, align 4, !tbaa !7
  %26 = icmp ne i32 %25, 0
  br i1 %26, label %27, label %32

27:                                               ; preds = %24
  %28 = load ptr, ptr %8, align 8, !tbaa !27
  %29 = load ptr, ptr %7, align 8, !tbaa !9
  %30 = call i32 @ossl_dsa_ffc_params_fromdata(ptr noundef %28, ptr noundef %29)
  %31 = icmp ne i32 %30, 0
  br label %32

32:                                               ; preds = %27, %24
  %33 = phi i1 [ false, %24 ], [ %31, %27 ]
  %34 = zext i1 %33 to i32
  store i32 %34, ptr %9, align 4, !tbaa !7
  %35 = load i32, ptr %6, align 4, !tbaa !7
  %36 = and i32 %35, 3
  %37 = icmp ne i32 %36, 0
  br i1 %37, label %38, label %54

38:                                               ; preds = %32
  call void @llvm.lifetime.start.p0(i64 4, ptr %11) #7
  %39 = load i32, ptr %6, align 4, !tbaa !7
  %40 = and i32 %39, 1
  %41 = icmp ne i32 %40, 0
  %42 = select i1 %41, i32 1, i32 0
  store i32 %42, ptr %11, align 4, !tbaa !7
  %43 = load i32, ptr %9, align 4, !tbaa !7
  %44 = icmp ne i32 %43, 0
  br i1 %44, label %45, label %51

45:                                               ; preds = %38
  %46 = load ptr, ptr %8, align 8, !tbaa !27
  %47 = load ptr, ptr %7, align 8, !tbaa !9
  %48 = load i32, ptr %11, align 4, !tbaa !7
  %49 = call i32 @ossl_dsa_key_fromdata(ptr noundef %46, ptr noundef %47, i32 noundef %48)
  %50 = icmp ne i32 %49, 0
  br label %51

51:                                               ; preds = %45, %38
  %52 = phi i1 [ false, %38 ], [ %50, %45 ]
  %53 = zext i1 %52 to i32
  store i32 %53, ptr %9, align 4, !tbaa !7
  call void @llvm.lifetime.end.p0(i64 4, ptr %11) #7
  br label %54

54:                                               ; preds = %51, %32
  %55 = load i32, ptr %9, align 4, !tbaa !7
  store i32 %55, ptr %4, align 4
  store i32 1, ptr %10, align 4
  br label %56

56:                                               ; preds = %54, %23, %18
  call void @llvm.lifetime.end.p0(i64 4, ptr %9) #7
  call void @llvm.lifetime.end.p0(i64 8, ptr %8) #7
  %57 = load i32, ptr %4, align 4
  ret i32 %57
}